; Function Attrs: mustprogress nounwind uwtable
define dso_local noundef ptr @_ZNK4llvm13DataExtractor5getU8ERNS0_6CursorEPhj(ptr noundef nonnull readonly align 8 captures(none) dereferenceable(18) %0, ptr noundef nonnull align 8 dereferenceable(16) %1, ptr noundef writeonly %2, i32 noundef %3) local_unnamed_addr #0 align 2 {
  %5 = getelementptr inbounds nuw i8, ptr %1, i64 8
  %6 = load ptr, ptr %5, align 8
  %.not23.i = icmp eq ptr %6, null
  br i1 %.not23.i, label %_ZL7isErrorPN4llvm5ErrorE.exit.thread.i, label %_ZNK4llvm13DataExtractor5getUsIhEEPT_PmS3_jPNS_5ErrorE.exit

_ZL7isErrorPN4llvm5ErrorE.exit.thread.i:          ; preds = %4
  %7 = load i64, ptr %1, align 8
  %8 = zext i32 %3 to i64
  %9 = tail call noundef zeroext i1 @_ZNK4llvm13DataExtractor11prepareReadEmmPNS_5ErrorE(ptr noundef nonnull align 8 dereferenceable(18) %0, i64 noundef %7, i64 noundef %8, ptr noundef nonnull %5)
  br i1 %9, label %10, label %_ZNK4llvm13DataExtractor5getUsIhEEPT_PmS3_jPNS_5ErrorE.exit

10:                                               ; preds = %_ZL7isErrorPN4llvm5ErrorE.exit.thread.i
  %11 = getelementptr inbounds nuw i8, ptr %2, i64 %8
  %.not24.i = icmp eq i32 %3, 0
  br i1 %.not24.i, label %._crit_edge.i, label %_ZL7isErrorPN4llvm5ErrorE.exit.i.i

_ZL7isErrorPN4llvm5ErrorE.exit.i.i:               ; preds = %10, %_ZNK4llvm13DataExtractor4getUIhEET_PmPNS_5ErrorE.exit.i
  %.02026.i = phi ptr [ %21, %_ZNK4llvm13DataExtractor4getUIhEET_PmPNS_5ErrorE.exit.i ], [ %2, %10 ]
  %12 = load ptr, ptr %5, align 8
  %.not.i22.i = icmp eq ptr %12, null
  br i1 %.not.i22.i, label %_ZL7isErrorPN4llvm5ErrorE.exit.thread.i.i, label %_ZNK4llvm13DataExtractor4getUIhEET_PmPNS_5ErrorE.exit.i

_ZL7isErrorPN4llvm5ErrorE.exit.thread.i.i:        ; preds = %_ZL7isErrorPN4llvm5ErrorE.exit.i.i
  %13 = load i64, ptr %1, align 8
  %14 = tail call noundef zeroext i1 @_ZNK4llvm13DataExtractor11prepareReadEmmPNS_5ErrorE(ptr noundef nonnull align 8 dereferenceable(18) %0, i64 noundef %13, i64 noundef 1, ptr noundef nonnull %5)
  br i1 %14, label %15, label %_ZNK4llvm13DataExtractor4getUIhEET_PmPNS_5ErrorE.exit.i

15:                                               ; preds = %_ZL7isErrorPN4llvm5ErrorE.exit.thread.i.i
  %16 = load ptr, ptr %0, align 8
  %17 = getelementptr inbounds i8, ptr %16, i64 %13
  %18 = load i8, ptr %17, align 1
  %19 = load i64, ptr %1, align 8
  %20 = add i64 %19, 1
  store i64 %20, ptr %1, align 8
  br label %_ZNK4llvm13DataExtractor4getUIhEET_PmPNS_5ErrorE.exit.i

_ZNK4llvm13DataExtractor4getUIhEET_PmPNS_5ErrorE.exit.i: ; preds = %15, %_ZL7isErrorPN4llvm5ErrorE.exit.thread.i.i, %_ZL7isErrorPN4llvm5ErrorE.exit.i.i
  %.0.i.i = phi i8 [ 0, %_ZL7isErrorPN4llvm5ErrorE.exit.i.i ], [ %18, %15 ], [ 0, %_ZL7isErrorPN4llvm5ErrorE.exit.thread.i.i ]
  store i8 %.0.i.i, ptr %.02026.i, align 1
  %21 = getelementptr inbounds nuw i8, ptr %.02026.i, i64 1
  %.not.i = icmp eq ptr %21, %11
  br i1 %.not.i, label %._crit_edge.loopexit27.i, label %_ZL7isErrorPN4llvm5ErrorE.exit.i.i, !llvm.loop !28

._crit_edge.loopexit27.i:                         ; preds = %_ZNK4llvm13DataExtractor4getUIhEET_PmPNS_5ErrorE.exit.i
  %22 = add i64 %7, %8
  br label %._crit_edge.i

._crit_edge.i:                                    ; preds = %._crit_edge.loopexit27.i, %10
  %.021.lcssa.i = phi i64 [ %7, %10 ], [ %22, %._crit_edge.loopexit27.i ]
  store i64 %.021.lcssa.i, ptr %1, align 8
  br label %_ZNK4llvm13DataExtractor5getUsIhEEPT_PmS3_jPNS_5ErrorE.exit

_ZNK4llvm13DataExtractor5getUsIhEEPT_PmS3_jPNS_5ErrorE.exit: ; preds = %4, %_ZL7isErrorPN4llvm5ErrorE.exit.thread.i, %._crit_edge.i
  %.0.i = phi ptr [ %2, %._crit_edge.i ], [ null, %4 ], [ null, %_ZL7isErrorPN4llvm5ErrorE.exit.thread.i ]
  ret ptr %.0.i
}